target datalayout = "e-m:e-p270:32:32-p271:32:32-p272:64:64-i64:64-i128:128-f80:128-n8:16:32:64-S128"
target triple = "x86_64-pc-linux-gnu"

%"class.JvmtiRawMonitor::QNode" = type { ptr, ptr, ptr, i32, i32 }
%class.JvmtiRawMonitor = type { ptr, i32, ptr, ptr, i32, ptr }
%"struct.Atomic::StoreImpl.10" = type { i8 }
%"struct.Atomic::PlatformOrderedStore" = type { i8 }
%class.ScopedFence.11 = type { ptr }
%"struct.Atomic::StoreImpl.13" = type { i8 }
%"struct.Atomic::PlatformStore.14" = type { i8 }

@RawMonitor_lock = external global ptr, align 8
@g_assert_poison = external global ptr, align 8
@.str = private unnamed_addr constant [44 x i8] c"src/hotspot/share/prims/jvmtiRawMonitor.cpp\00", align 1
@.str.5 = private unnamed_addr constant [33 x i8] c"guarantee(_owner == self) failed\00", align 1
@.str.6 = private unnamed_addr constant [10 x i8] c"invariant\00", align 1
@.str.7 = private unnamed_addr constant [50 x i8] c"guarantee(w ->_t_state == QNode::TS_ENTER) failed\00", align 1

; Function Attrs: mustprogress nounwind uwtable
define linkonce_odr hidden void @_ZN11OrderAccess7releaseEv() #1 comdat align 2 {
  call void @_ZL16compiler_barrierv()
  ret void
}

; Function Attrs: mustprogress nounwind uwtable
define linkonce_odr hidden void @_ZN18ScopedFenceGeneralIL15ScopedFenceType1EE7postfixEv(ptr noundef nonnull align 1 dereferenceable(1) %0) #1 comdat align 2 {
  %2 = alloca ptr, align 8
  store ptr %0, ptr %2, align 8
  ret void
}

; Function Attrs: mustprogress nounwind uwtable
define linkonce_odr hidden void @_ZNK6Atomic13PlatformStoreILm8EEclIP6ThreadEEvPVT_S5_(ptr noundef nonnull align 1 dereferenceable(1) %0, ptr noundef %1, ptr noundef %2) #1 comdat align 2 {
  %4 = alloca ptr, align 8
  %5 = alloca ptr, align 8
  %6 = alloca ptr, align 8
  store ptr %0, ptr %4, align 8
  store ptr %1, ptr %5, align 8
  store ptr %2, ptr %6, align 8
  %7 = load ptr, ptr %6, align 8
  %8 = load ptr, ptr %5, align 8
  store volatile ptr %7, ptr %8, align 8
  ret void
}

; Function Attrs: mustprogress nounwind uwtable
define linkonce_odr hidden void @_ZN18ScopedFenceGeneralIL15ScopedFenceType1EE6prefixEv(ptr noundef nonnull align 1 dereferenceable(1) %0) #1 comdat align 2 {
  %2 = alloca ptr, align 8
  store ptr %0, ptr %2, align 8
  call void @_ZN11OrderAccess7releaseEv()
  ret void
}

; Function Attrs: mustprogress nounwind uwtable
define linkonce_odr hidden void @_ZN11ScopedFenceIL15ScopedFenceType1EE7postfixEv(ptr noundef nonnull align 8 dereferenceable(8) %0) #1 comdat align 2 {
  %2 = alloca ptr, align 8
  store ptr %0, ptr %2, align 8
  %3 = load ptr, ptr %2, align 8
  call void @_ZN18ScopedFenceGeneralIL15ScopedFenceType1EE7postfixEv(ptr noundef nonnull align 1 dereferenceable(1) %3)
  ret void
}

; Function Attrs: mustprogress nounwind uwtable
define linkonce_odr hidden void @_ZNK6Atomic9StoreImplIP6ThreadS2_NS_13PlatformStoreILm8EEEvEclEPVS2_S2_(ptr noundef nonnull align 1 dereferenceable(1) %0, ptr noundef %1, ptr noundef %2) #1 comdat align 2 {
  %4 = alloca ptr, align 8
  %5 = alloca ptr, align 8
  %6 = alloca ptr, align 8
  %7 = alloca ptr, align 8
  %8 = alloca %"struct.Atomic::PlatformStore.14", align 1
  store ptr %0, ptr %4, align 8
  store ptr %1, ptr %5, align 8
  store ptr %2, ptr %6, align 8
  %9 = load ptr, ptr %6, align 8
  store ptr %9, ptr %7, align 8
  %10 = load ptr, ptr %5, align 8
  %11 = load ptr, ptr %7, align 8
  call void @_ZNK6Atomic13PlatformStoreILm8EEclIP6ThreadEEvPVT_S5_(ptr noundef nonnull align 1 dereferenceable(1) %8, ptr noundef %10, ptr noundef %11)
  ret void
}

; Function Attrs: mustprogress nounwind uwtable
define linkonce_odr hidden void @_ZN11ScopedFenceIL15ScopedFenceType1EE6prefixEv(ptr noundef nonnull align 8 dereferenceable(8) %0) #1 comdat align 2 {
  %2 = alloca ptr, align 8
  store ptr %0, ptr %2, align 8
  %3 = load ptr, ptr %2, align 8
  call void @_ZN18ScopedFenceGeneralIL15ScopedFenceType1EE6prefixEv(ptr noundef nonnull align 1 dereferenceable(1) %3)
  ret void
}

; Function Attrs: mustprogress nounwind uwtable
define linkonce_odr hidden void @_ZN11ScopedFenceIL15ScopedFenceType1EED2Ev(ptr noundef nonnull align 8 dereferenceable(8) %0) unnamed_addr #1 comdat align 2 {
  %2 = alloca ptr, align 8
  store ptr %0, ptr %2, align 8
  %3 = load ptr, ptr %2, align 8
  call void @_ZN11ScopedFenceIL15ScopedFenceType1EE7postfixEv(ptr noundef nonnull align 8 dereferenceable(8) %3)
  ret void
}

; Function Attrs: mustprogress nounwind uwtable
define linkonce_odr hidden void @_ZN6Atomic5storeIP6ThreadS2_EEvPVT_T0_(ptr noundef %0, ptr noundef %1) #1 comdat align 2 {
  %3 = alloca ptr, align 8
  %4 = alloca ptr, align 8
  %5 = alloca %"struct.Atomic::StoreImpl.13", align 1
  store ptr %0, ptr %3, align 8
  store ptr %1, ptr %4, align 8
  %6 = load ptr, ptr %3, align 8
  %7 = load ptr, ptr %4, align 8
  call void @_ZNK6Atomic9StoreImplIP6ThreadS2_NS_13PlatformStoreILm8EEEvEclEPVS2_S2_(ptr noundef nonnull align 1 dereferenceable(1) %5, ptr noundef %6, ptr noundef %7)
  ret void
}

; Function Attrs: mustprogress nounwind uwtable
define linkonce_odr hidden void @_ZN11ScopedFenceIL15ScopedFenceType1EEC2EPv(ptr noundef nonnull align 8 dereferenceable(8) %0, ptr noundef %1) unnamed_addr #1 comdat align 2 {
  %3 = alloca ptr, align 8
  %4 = alloca ptr, align 8
  store ptr %0, ptr %3, align 8
  store ptr %1, ptr %4, align 8
  %5 = load ptr, ptr %3, align 8
  %6 = getelementptr inbounds %class.ScopedFence.11, ptr %5, i32 0, i32 0
  %7 = load ptr, ptr %4, align 8
  store ptr %7, ptr %6, align 8
  call void @_ZN11ScopedFenceIL15ScopedFenceType1EE6prefixEv(ptr noundef nonnull align 8 dereferenceable(8) %5)
  ret void
}

; Function Attrs: mustprogress nounwind uwtable
define linkonce_odr hidden void @_ZNK6Atomic20PlatformOrderedStoreILm8EL15ScopedFenceType1EEclIP6ThreadEEvPVT_S6_(ptr noundef nonnull align 1 dereferenceable(1) %0, ptr noundef %1, ptr noundef %2) #1 comdat align 2 {
  %4 = alloca ptr, align 8
  %5 = alloca ptr, align 8
  %6 = alloca ptr, align 8
  %7 = alloca %class.ScopedFence.11, align 8
  store ptr %0, ptr %4, align 8
  store ptr %1, ptr %5, align 8
  store ptr %2, ptr %6, align 8
  %8 = load ptr, ptr %5, align 8
  call void @_ZN11ScopedFenceIL15ScopedFenceType1EEC2EPv(ptr noundef nonnull align 8 dereferenceable(8) %7, ptr noundef %8)
  %9 = load ptr, ptr %5, align 8
  %10 = load ptr, ptr %6, align 8
  call void @_ZN6Atomic5storeIP6ThreadS2_EEvPVT_T0_(ptr noundef %9, ptr noundef %10)
  call void @_ZN11ScopedFenceIL15ScopedFenceType1EED2Ev(ptr noundef nonnull align 8 dereferenceable(8) %7) #7
  ret void
}

; Function Attrs: mustprogress nounwind uwtable
define internal void @_ZL16compiler_barrierv() #1 {
  call void asm sideeffect "", "~{memory},~{dirflag},~{fpsr},~{flags}"() #7, !srcloc !15
  ret void
}

; Function Attrs: mustprogress nounwind uwtable
define linkonce_odr hidden void @_ZNK6Atomic9StoreImplIP6ThreadS2_NS_20PlatformOrderedStoreILm8EL15ScopedFenceType1EEEvEclEPVS2_S2_(ptr noundef nonnull align 1 dereferenceable(1) %0, ptr noundef %1, ptr noundef %2) #1 comdat align 2 {
  %4 = alloca ptr, align 8
  %5 = alloca ptr, align 8
  %6 = alloca ptr, align 8
  %7 = alloca ptr, align 8
  %8 = alloca %"struct.Atomic::PlatformOrderedStore", align 1
  store ptr %0, ptr %4, align 8
  store ptr %1, ptr %5, align 8
  store ptr %2, ptr %6, align 8
  %9 = load ptr, ptr %6, align 8
  store ptr %9, ptr %7, align 8
  %10 = load ptr, ptr %5, align 8
  %11 = load ptr, ptr %7, align 8
  call void @_ZNK6Atomic20PlatformOrderedStoreILm8EL15ScopedFenceType1EEclIP6ThreadEEvPVT_S6_(ptr noundef nonnull align 1 dereferenceable(1) %8, ptr noundef %10, ptr noundef %11)
  ret void
}

; Function Attrs: mustprogress nounwind uwtable
define linkonce_odr hidden void @_ZN11OrderAccess9loadstoreEv() #1 comdat align 2 {
  call void @_ZL16compiler_barrierv()
  ret void
}

; Function Attrs: mustprogress nounwind uwtable
define linkonce_odr hidden noundef ptr @_ZN10JavaThread4castEP6Thread(ptr noundef %0) #1 comdat align 2 {
  %2 = alloca ptr, align 8
  store ptr %0, ptr %2, align 8
  %3 = load ptr, ptr %2, align 8
  ret ptr %3
}

; Function Attrs: mustprogress nounwind uwtable
define linkonce_odr hidden void @_ZN11OrderAccess5fenceEv() #1 comdat align 2 {
  call void asm sideeffect "lock; addl $$0,0(%rsp)", "~{cc},~{memory},~{dirflag},~{fpsr},~{flags}"() #7, !srcloc !11
  call void @_ZL16compiler_barrierv()
  ret void
}

; Function Attrs: mustprogress nounwind uwtable
define linkonce_odr hidden void @_ZN6Atomic13release_storeIP6ThreadS2_EEvPVT_T0_(ptr noundef %0, ptr noundef %1) #1 comdat align 2 {
  %3 = alloca ptr, align 8
  %4 = alloca ptr, align 8
  %5 = alloca %"struct.Atomic::StoreImpl.10", align 1
  store ptr %0, ptr %3, align 8
  store ptr %1, ptr %4, align 8
  %6 = load ptr, ptr %3, align 8
  %7 = load ptr, ptr %4, align 8
  call void @_ZNK6Atomic9StoreImplIP6ThreadS2_NS_20PlatformOrderedStoreILm8EL15ScopedFenceType1EEEvEclEPVS2_S2_(ptr noundef nonnull align 1 dereferenceable(1) %5, ptr noundef %6, ptr noundef %7)
  ret void
}

; Function Attrs: mustprogress nounwind uwtable
define hidden void @_ZN15JvmtiRawMonitor11simple_exitEP6Thread(ptr noundef nonnull align 8 dereferenceable(48) %0, ptr noundef %1) #1 align 2 {
  %3 = alloca ptr, align 8
  %4 = alloca ptr, align 8
  %5 = alloca ptr, align 8
  %6 = alloca ptr, align 8
  store ptr %0, ptr %3, align 8
  store ptr %1, ptr %4, align 8
  %7 = load ptr, ptr %3, align 8
  br label %8

8:                                                ; preds = %2
  %9 = getelementptr inbounds %class.JvmtiRawMonitor, ptr %7, i32 0, i32 0
  %10 = load volatile ptr, ptr %9, align 8
  %11 = load ptr, ptr %4, align 8
  %12 = icmp eq ptr %10, %11
  br i1 %12, label %15, label %13

13:                                               ; preds = %8
  %14 = load ptr, ptr @g_assert_poison, align 8
  store i8 88, ptr %14, align 1
  call void (ptr, i32, ptr, ptr, ...) @_Z15report_vm_errorPKciS0_S0_z(ptr noundef @.str, i32 noundef 157, ptr noundef @.str.5, ptr noundef @.str.6) #8
  unreachable

15:                                               ; preds = %8
  br label %16

16:                                               ; preds = %15
  %17 = getelementptr inbounds %class.JvmtiRawMonitor, ptr %7, i32 0, i32 0
  call void @_ZN6Atomic13release_storeIP6ThreadS2_EEvPVT_T0_(ptr noundef %17, ptr noundef null)
  call void @_ZN11OrderAccess5fenceEv()
  %18 = load ptr, ptr %4, align 8
  %19 = load ptr, ptr %18, align 8
  %20 = getelementptr inbounds ptr, ptr %19, i64 7
  %21 = load ptr, ptr %20, align 8
  %22 = call noundef zeroext i1 %21(ptr noundef nonnull align 8 dereferenceable(888) %18)
  br i1 %22, label %23, label %27

23:                                               ; preds = %16
  %24 = load ptr, ptr %4, align 8
  %25 = call noundef ptr @_ZN10JavaThread4castEP6Thread(ptr noundef %24)
  %26 = call noundef zeroext i1 @_ZN12Continuation5unpinEP10JavaThread(ptr noundef %25)
  br label %27

27:                                               ; preds = %23, %16
  %28 = getelementptr inbounds %class.JvmtiRawMonitor, ptr %7, i32 0, i32 2
  %29 = load volatile ptr, ptr %28, align 8
  %30 = icmp eq ptr %29, null
  br i1 %30, label %31, label %32

31:                                               ; preds = %27
  br label %64

32:                                               ; preds = %27
  %33 = load ptr, ptr @RawMonitor_lock, align 8
  call void @_ZN5Mutex28lock_without_safepoint_checkEv(ptr noundef nonnull align 8 dereferenceable(104) %33)
  %34 = getelementptr inbounds %class.JvmtiRawMonitor, ptr %7, i32 0, i32 2
  %35 = load volatile ptr, ptr %34, align 8
  store ptr %35, ptr %5, align 8
  %36 = load ptr, ptr %5, align 8
  %37 = icmp ne ptr %36, null
  br i1 %37, label %38, label %43

38:                                               ; preds = %32
  %39 = load ptr, ptr %5, align 8
  %40 = getelementptr inbounds %"class.JvmtiRawMonitor::QNode", ptr %39, i32 0, i32 0
  %41 = load volatile ptr, ptr %40, align 8
  %42 = getelementptr inbounds %class.JvmtiRawMonitor, ptr %7, i32 0, i32 2
  store volatile ptr %41, ptr %42, align 8
  br label %43

43:                                               ; preds = %38, %32
  %44 = load ptr, ptr @RawMonitor_lock, align 8
  call void @_ZN5Mutex6unlockEv(ptr noundef nonnull align 8 dereferenceable(104) %44)
  %45 = load ptr, ptr %5, align 8
  %46 = icmp ne ptr %45, null
  br i1 %46, label %47, label %63

47:                                               ; preds = %43
  br label %48

48:                                               ; preds = %47
  %49 = load ptr, ptr %5, align 8
  %50 = getelementptr inbounds %"class.JvmtiRawMonitor::QNode", ptr %49, i32 0, i32 4
  %51 = load volatile i32, ptr %50, align 4
  %52 = icmp eq i32 %51, 3
  br i1 %52, label %55, label %53

53:                                               ; preds = %48
  %54 = load ptr, ptr @g_assert_poison, align 8
  store i8 88, ptr %54, align 1
  call void (ptr, i32, ptr, ptr, ...) @_Z15report_vm_errorPKciS0_S0_z(ptr noundef @.str, i32 noundef 174, ptr noundef @.str.7, ptr noundef @.str.6) #8
  unreachable

55:                                               ; preds = %48
  br label %56

56:                                               ; preds = %55
  %57 = load ptr, ptr %5, align 8
  %58 = getelementptr inbounds %"class.JvmtiRawMonitor::QNode", ptr %57, i32 0, i32 2
  %59 = load ptr, ptr %58, align 8
  store ptr %59, ptr %6, align 8
  call void @_ZN11OrderAccess9loadstoreEv()
  %60 = load ptr, ptr %5, align 8
  %61 = getelementptr inbounds %"class.JvmtiRawMonitor::QNode", ptr %60, i32 0, i32 4
  store volatile i32 1, ptr %61, align 4
  call void @_ZN11OrderAccess5fenceEv()
  %62 = load ptr, ptr %6, align 8
  call void @_ZN13PlatformEvent6unparkEv(ptr noundef nonnull align 8 dereferenceable(144) %62)
  br label %63

63:                                               ; preds = %56, %43
  br label %64

64:                                               ; preds = %63, %31
  ret void
}