; Function Attrs: mustprogress nounwind uwtable
define hidden void @_ZN15JvmtiRawMonitor11simple_exitEP6Thread(ptr noundef nonnull align 8 dereferenceable(48) %0, ptr noundef %1) local_unnamed_addr #2 align 2 {
  %3 = load volatile ptr, ptr %0, align 8
  %4 = icmp eq ptr %3, %1
  br i1 %4, label %7, label %5

5:                                                ; preds = %2
  %6 = load ptr, ptr @g_assert_poison, align 8
  store i8 88, ptr %6, align 1
  tail call void (ptr, i32, ptr, ptr, ...) @_Z15report_vm_errorPKciS0_S0_z(ptr noundef nonnull @.str, i32 noundef 157, ptr noundef nonnull @.str.5, ptr noundef nonnull @.str.6) #10
  unreachable

7:                                                ; preds = %2
  tail call void asm sideeffect "", "~{memory},~{dirflag},~{fpsr},~{flags}"() #9, !srcloc !6
  store volatile ptr null, ptr %0, align 8
  tail call void asm sideeffect "lock; addl $$0,0(%rsp)", "~{cc},~{memory},~{dirflag},~{fpsr},~{flags}"() #9, !srcloc !9
  tail call void asm sideeffect "", "~{memory},~{dirflag},~{fpsr},~{flags}"() #9, !srcloc !6
  %8 = load ptr, ptr %1, align 8
  %9 = getelementptr inbounds i8, ptr %8, i64 56
  %10 = load ptr, ptr %9, align 8
  %11 = tail call noundef zeroext i1 %10(ptr noundef nonnull align 8 dereferenceable(888) %1) #9
  br i1 %11, label %12, label %14

12:                                               ; preds = %7
  %13 = tail call noundef zeroext i1 @_ZN12Continuation5unpinEP10JavaThread(ptr noundef nonnull %1) #9
  br label %14

14:                                               ; preds = %12, %7
  %15 = getelementptr inbounds i8, ptr %0, i64 16
  %16 = load volatile ptr, ptr %15, align 8
  %17 = icmp eq ptr %16, null
  br i1 %17, label %33, label %18

18:                                               ; preds = %14
  %19 = load ptr, ptr @RawMonitor_lock, align 8
  tail call void @_ZN5Mutex28lock_without_safepoint_checkEv(ptr noundef nonnull align 8 dereferenceable(104) %19) #9
  %20 = load volatile ptr, ptr %15, align 8
  %.not = icmp eq ptr %20, null
  br i1 %.not, label %.critedge, label %21

21:                                               ; preds = %18
  %22 = load volatile ptr, ptr %20, align 8
  store volatile ptr %22, ptr %15, align 8
  %23 = load ptr, ptr @RawMonitor_lock, align 8
  tail call void @_ZN5Mutex6unlockEv(ptr noundef nonnull align 8 dereferenceable(104) %23) #9
  %24 = getelementptr inbounds i8, ptr %20, i64 28
  %25 = load volatile i32, ptr %24, align 4
  %26 = icmp eq i32 %25, 3
  br i1 %26, label %29, label %27

27:                                               ; preds = %21
  %28 = load ptr, ptr @g_assert_poison, align 8
  store i8 88, ptr %28, align 1
  tail call void (ptr, i32, ptr, ptr, ...) @_Z15report_vm_errorPKciS0_S0_z(ptr noundef nonnull @.str, i32 noundef 174, ptr noundef nonnull @.str.7, ptr noundef nonnull @.str.6) #10
  unreachable

29:                                               ; preds = %21
  %30 = getelementptr inbounds i8, ptr %20, i64 16
  %31 = load ptr, ptr %30, align 8
  tail call void asm sideeffect "", "~{memory},~{dirflag},~{fpsr},~{flags}"() #9, !srcloc !6
  store volatile i32 1, ptr %24, align 4
  tail call void asm sideeffect "lock; addl $$0,0(%rsp)", "~{cc},~{memory},~{dirflag},~{fpsr},~{flags}"() #9, !srcloc !9
  tail call void asm sideeffect "", "~{memory},~{dirflag},~{fpsr},~{flags}"() #9, !srcloc !6
  tail call void @_ZN13PlatformEvent6unparkEv(ptr noundef nonnull align 8 dereferenceable(144) %31) #9
  br label %33

.critedge:                                        ; preds = %18
  %32 = load ptr, ptr @RawMonitor_lock, align 8
  tail call void @_ZN5Mutex6unlockEv(ptr noundef nonnull align 8 dereferenceable(104) %32) #9
  br label %33

33:                                               ; preds = %.critedge, %29, %14
  ret void
}